; Function Attrs: nounwind uwtable
define internal i64 @H5FD__splitter_sb_size(ptr noundef readonly captures(none) %0) #0 {
  %2 = load i8, ptr @H5FD_init_g, align 1, !tbaa !3, !range !7, !noundef !8
  %3 = trunc nuw i8 %2 to i1
  %4 = load i8, ptr @H5_libterm_g, align 1, !range !7
  %5 = trunc nuw i8 %4 to i1
  %6 = xor i1 %5, true
  %7 = select i1 %3, i1 true, i1 %6
  br i1 %7, label %8, label %13, !prof !9

8:                                                ; preds = %1
  %9 = getelementptr inbounds nuw i8, ptr %0, i64 8304
  %10 = load ptr, ptr %9, align 8, !tbaa !33
  %.not = icmp eq ptr %10, null
  br i1 %.not, label %13, label %11

11:                                               ; preds = %8
  %12 = tail call i64 @H5FD_sb_size(ptr noundef nonnull %10) #12
  br label %13

13:                                               ; preds = %8, %11, %1
  %.0 = phi i64 [ %12, %11 ], [ 0, %8 ], [ 0, %1 ]
  ret i64 %.0
}